; ModuleID = '45/736.c'
source_filename = "45/736.c"
target datalayout = "e-m:e-p270:32:32-p271:32:32-p272:64:64-i64:64-f80:128-n8:16:32:64-S128"
target triple = "x86_64-pc-linux-gnu"

@.str = private unnamed_addr constant [3 x i8] c"%s\00", align 1
@.str.1 = private unnamed_addr constant [3 x i8] c"%d\00", align 1

; Function Attrs: noinline nounwind uwtable
define dso_local void @main() #0 {
  %1 = alloca i32, align 4
  %2 = alloca i32, align 4
  %3 = alloca i32, align 4
  %4 = alloca i32, align 4
  %5 = alloca i32, align 4
  %6 = alloca i8**, align 8
  %7 = call noalias i8* @malloc(i64 16) #4
  %8 = bitcast i8* %7 to i8**
  store i8** %8, i8*** %6, align 8
  %9 = call noalias i8* @malloc(i64 50) #4
  %10 = load i8**, i8*** %6, align 8
  %11 = getelementptr inbounds i8*, i8** %10, i64 0
  store i8* %9, i8** %11, align 8
  %12 = call noalias i8* @malloc(i64 50) #4
  %13 = load i8**, i8*** %6, align 8
  %14 = getelementptr inbounds i8*, i8** %13, i64 1
  store i8* %12, i8** %14, align 8
  %15 = load i8**, i8*** %6, align 8
  %16 = getelementptr inbounds i8*, i8** %15, i64 0
  %17 = load i8*, i8** %16, align 8
  %18 = call i32 (i8*, ...) @__isoc99_scanf(i8* getelementptr inbounds ([3 x i8], [3 x i8]* @.str, i64 0, i64 0), i8* %17)
  %19 = load i8**, i8*** %6, align 8
  %20 = getelementptr inbounds i8*, i8** %19, i64 1
  %21 = load i8*, i8** %20, align 8
  %22 = call i32 (i8*, ...) @__isoc99_scanf(i8* getelementptr inbounds ([3 x i8], [3 x i8]* @.str, i64 0, i64 0), i8* %21)
  %23 = load i8**, i8*** %6, align 8
  %24 = getelementptr inbounds i8*, i8** %23, i64 0
  %25 = load i8*, i8** %24, align 8
  %26 = call i64 @strlen(i8* %25) #5
  %27 = trunc i64 %26 to i32
  store i32 %27, i32* %4, align 4
  %28 = load i8**, i8*** %6, align 8
  %29 = getelementptr inbounds i8*, i8** %28, i64 1
  %30 = load i8*, i8** %29, align 8
  %31 = call i64 @strlen(i8* %30) #5
  %32 = trunc i64 %31 to i32
  store i32 %32, i32* %5, align 4
  store i32 0, i32* %1, align 4
  br label %33

33:                                               ; preds = %74, %0
  %34 = load i32, i32* %1, align 4
  %35 = load i32, i32* %5, align 4
  %36 = icmp slt i32 %34, %35
  br i1 %36, label %37, label %77

37:                                               ; preds = %33
  store i32 0, i32* %3, align 4
  store i32 0, i32* %2, align 4
  br label %38

38:                                               ; preds = %64, %37
  %39 = load i32, i32* %2, align 4
  %40 = load i32, i32* %4, align 4
  %41 = icmp slt i32 %39, %40
  br i1 %41, label %42, label %67

42:                                               ; preds = %38
  %43 = load i8**, i8*** %6, align 8
  %44 = getelementptr inbounds i8*, i8** %43, i64 0
  %45 = load i8*, i8** %44, align 8
  %46 = load i32, i32* %2, align 4
  %47 = sext i32 %46 to i64
  %48 = getelementptr inbounds i8, i8* %45, i64 %47
  %49 = load i8, i8* %48, align 1
  %50 = sext i8 %49 to i32
  %51 = load i8**, i8*** %6, align 8
  %52 = getelementptr inbounds i8*, i8** %51, i64 1
  %53 = load i8*, i8** %52, align 8
  %54 = load i32, i32* %1, align 4
  %55 = load i32, i32* %2, align 4
  %56 = add nsw i32 %54, %55
  %57 = sext i32 %56 to i64
  %58 = getelementptr inbounds i8, i8* %53, i64 %57
  %59 = load i8, i8* %58, align 1
  %60 = sext i8 %59 to i32
  %61 = icmp ne i32 %50, %60
  br i1 %61, label %62, label %63

62:                                               ; preds = %42
  store i32 1, i32* %3, align 4
  br label %67

63:                                               ; preds = %42
  br label %64

64:                                               ; preds = %63
  %65 = load i32, i32* %2, align 4
  %66 = add nsw i32 %65, 1
  store i32 %66, i32* %2, align 4
  br label %38

67:                                               ; preds = %62, %38
  %68 = load i32, i32* %3, align 4
  %69 = icmp eq i32 %68, 0
  br i1 %69, label %70, label %73

70:                                               ; preds = %67
  %71 = load i32, i32* %1, align 4
  %72 = call i32 (i8*, ...) @printf(i8* getelementptr inbounds ([3 x i8], [3 x i8]* @.str.1, i64 0, i64 0), i32 %71)
  br label %77

73:                                               ; preds = %67
  br label %74

74:                                               ; preds = %73
  %75 = load i32, i32* %1, align 4
  %76 = add nsw i32 %75, 1
  store i32 %76, i32* %1, align 4
  br label %33

77:                                               ; preds = %70, %33
  %78 = load i8**, i8*** %6, align 8
  %79 = getelementptr inbounds i8*, i8** %78, i64 0
  %80 = load i8*, i8** %79, align 8
  call void @free(i8* %80) #4
  %81 = load i8**, i8*** %6, align 8
  %82 = getelementptr inbounds i8*, i8** %81, i64 1
  %83 = load i8*, i8** %82, align 8
  call void @free(i8* %83) #4
  %84 = load i8**, i8*** %6, align 8
  %85 = bitcast i8** %84 to i8*
  call void @free(i8* %85) #4
  ret void
}

; Function Attrs: nounwind
declare dso_local noalias i8* @malloc(i64) #1

declare dso_local i32 @__isoc99_scanf(i8*, ...) #2

; Function Attrs: nounwind readonly
declare dso_local i64 @strlen(i8*) #3

declare dso_local i32 @printf(i8*, ...) #2

; Function Attrs: nounwind
declare dso_local void @free(i8*) #1


!llvm.module.flags = !{!0}
!llvm.ident = !{!1}

!0 = !{i32 1, !"wchar_size", i32 4}
!1 = !{!"clang version 10.0.0-4ubuntu1 "}
