; ModuleID = 'source-C-CXX/44/736.c'
source_filename = "source-C-CXX/44/736.c"
target datalayout = "e-m:e-p270:32:32-p271:32:32-p272:64:64-i64:64-f80:128-n8:16:32:64-S128"
target triple = "x86_64-pc-linux-gnu"

@.str = private unnamed_addr constant [3 x i8] c"%s\00", align 1
@.str.1 = private unnamed_addr constant [3 x i8] c"%d\00", align 1

; Function Attrs: nounwind sspstrong uwtable
define dso_local void @main() local_unnamed_addr #0 {
  %1 = tail call noalias align 16 dereferenceable_or_null(50) i8* @malloc(i64 50) #5
  %2 = tail call noalias align 16 dereferenceable_or_null(50) i8* @malloc(i64 50) #5
  %3 = tail call i32 (i8*, ...) @__isoc99_scanf(i8* getelementptr inbounds ([3 x i8], [3 x i8]* @.str, i64 0, i64 0), i8* %1)
  %4 = tail call i32 (i8*, ...) @__isoc99_scanf(i8* getelementptr inbounds ([3 x i8], [3 x i8]* @.str, i64 0, i64 0), i8* %2)
  %5 = tail call i64 @strlen(i8* noundef nonnull dereferenceable(1) %1) #6
  %6 = tail call i64 @strlen(i8* noundef nonnull dereferenceable(1) %2) #6
  %7 = trunc i64 %6 to i32
  %8 = icmp sgt i32 %7, 0
  br i1 %8, label %9, label %36

9:                                                ; preds = %0
  %10 = trunc i64 %5 to i32
  %11 = icmp sgt i32 %10, 0
  br i1 %11, label %12, label %33

12:                                               ; preds = %9
  %13 = and i64 %6, 4294967295
  %14 = and i64 %5, 4294967295
  br label %15

15:                                               ; preds = %12, %28
  %16 = phi i64 [ 0, %12 ], [ %29, %28 ]
  br label %19

17:                                               ; preds = %19
  %18 = icmp eq i64 %27, %14
  br i1 %18, label %31, label %19, !llvm.loop !5

19:                                               ; preds = %15, %17
  %20 = phi i64 [ 0, %15 ], [ %27, %17 ]
  %21 = getelementptr inbounds i8, i8* %1, i64 %20
  %22 = load i8, i8* %21, align 1, !tbaa !7
  %23 = add nuw nsw i64 %20, %16
  %24 = getelementptr inbounds i8, i8* %2, i64 %23
  %25 = load i8, i8* %24, align 1, !tbaa !7
  %26 = icmp eq i8 %22, %25
  %27 = add nuw nsw i64 %20, 1
  br i1 %26, label %17, label %28

28:                                               ; preds = %19
  %29 = add nuw nsw i64 %16, 1
  %30 = icmp eq i64 %29, %13
  br i1 %30, label %36, label %15, !llvm.loop !10

31:                                               ; preds = %17
  %32 = trunc i64 %16 to i32
  br label %33

33:                                               ; preds = %31, %9
  %34 = phi i32 [ 0, %9 ], [ %32, %31 ]
  %35 = tail call i32 (i8*, ...) @printf(i8* nonnull dereferenceable(1) getelementptr inbounds ([3 x i8], [3 x i8]* @.str.1, i64 0, i64 0), i32 %34)
  br label %36

36:                                               ; preds = %28, %0, %33
  tail call void @free(i8* %1) #5
  tail call void @free(i8* %2) #5
  ret void
}

; Function Attrs: inaccessiblememonly mustprogress nofree nounwind willreturn
declare noalias noundef align 16 i8* @malloc(i64 noundef) local_unnamed_addr #1

; Function Attrs: nofree nounwind
declare noundef i32 @__isoc99_scanf(i8* nocapture noundef readonly, ...) local_unnamed_addr #2

; Function Attrs: argmemonly mustprogress nofree nounwind readonly willreturn
declare i64 @strlen(i8* nocapture) local_unnamed_addr #3

; Function Attrs: nofree nounwind
declare noundef i32 @printf(i8* nocapture noundef readonly, ...) local_unnamed_addr #2

; Function Attrs: inaccessiblemem_or_argmemonly mustprogress nounwind willreturn
declare void @free(i8* nocapture noundef) local_unnamed_addr #4


!llvm.module.flags = !{!0, !1, !2, !3}
!llvm.ident = !{!4}

!0 = !{i32 1, !"wchar_size", i32 4}
!1 = !{i32 7, !"PIC Level", i32 2}
!2 = !{i32 7, !"PIE Level", i32 2}
!3 = !{i32 7, !"uwtable", i32 1}
!4 = !{!"clang version 13.0.0"}
!5 = distinct !{!5, !6}
!6 = !{!"llvm.loop.mustprogress"}
!7 = !{!8, !8, i64 0}
!8 = !{!"omnipotent char", !9, i64 0}
!9 = !{!"Simple C/C++ TBAA"}
!10 = distinct !{!10, !6}
